; Function Attrs: nounwind uwtable
define hidden void @zim_PDO_getAvailableDrivers(ptr noundef readonly captures(none) %0, ptr noundef %1) #0 {
  %3 = getelementptr inbounds nuw i8, ptr %0, i64 44
  %4 = load i32, ptr %3, align 4, !tbaa !4
  %.not = icmp eq i32 %4, 0
  br i1 %.not, label %6, label %5, !prof !66

5:                                                ; preds = %2
  tail call void @zend_wrong_parameters_none_error() #13
  br label %.loopexit

6:                                                ; preds = %2
  %7 = tail call ptr @_zend_new_array_0() #13
  store ptr %7, ptr %1, align 8, !tbaa !4
  %8 = getelementptr inbounds nuw i8, ptr %1, i64 8
  store i32 775, ptr %8, align 8, !tbaa !4
  %9 = load ptr, ptr getelementptr inbounds nuw (i8, ptr @pdo_driver_hash, i64 16), align 8, !tbaa !4
  %10 = load i32, ptr getelementptr inbounds nuw (i8, ptr @pdo_driver_hash, i64 24), align 8, !tbaa !77
  %11 = zext i32 %10 to i64
  %12 = getelementptr inbounds nuw %struct._Bucket, ptr %9, i64 %11
  %13 = load i32, ptr getelementptr inbounds nuw (i8, ptr @pdo_driver_hash, i64 8), align 8, !tbaa !4
  %14 = and i32 %13, 4
  %.not18 = icmp eq i32 %14, 0
  tail call void @llvm.assume(i1 %.not18)
  %.not1920 = icmp eq i32 %10, 0
  br i1 %.not1920, label %.loopexit, label %.lr.ph

.lr.ph:                                           ; preds = %6, %24
  %.021 = phi ptr [ %25, %24 ], [ %9, %6 ]
  %15 = getelementptr inbounds nuw i8, ptr %.021, i64 8
  %16 = load i8, ptr %15, align 8, !tbaa !4
  %17 = icmp eq i8 %16, 0
  br i1 %17, label %24, label %18, !prof !68

18:                                               ; preds = %.lr.ph
  %19 = load ptr, ptr %.021, align 8, !tbaa !4
  %20 = load ptr, ptr %19, align 8, !tbaa !73
  %21 = getelementptr inbounds nuw i8, ptr %19, i64 8
  %22 = load i64, ptr %21, align 8, !tbaa !76
  %23 = tail call i32 @add_next_index_stringl(ptr noundef nonnull %1, ptr noundef %20, i64 noundef %22) #13
  br label %24

24:                                               ; preds = %.lr.ph, %18
  %25 = getelementptr inbounds nuw i8, ptr %.021, i64 32
  %.not19 = icmp eq ptr %25, %12
  br i1 %.not19, label %.loopexit, label %.lr.ph

.loopexit:                                        ; preds = %24, %6, %5
  ret void
}